target datalayout = "e-m:e-p270:32:32-p271:32:32-p272:64:64-i64:64-i128:128-f80:128-n8:16:32:64-S128"
target triple = "x86_64-pc-linux-gnu"

%struct.AVFilterContext = type { ptr, ptr, ptr, ptr, ptr, i32, ptr, ptr, i32, ptr, ptr, i32, i32, ptr, ptr, ptr, ptr, i32, ptr, i32, i32 }
%struct.AudioNEqualizerContext = type { ptr, ptr, ptr, i32, i32, i32, double, i32, i32, i32, ptr, ptr }
%struct.AVFilterLink = type { ptr, ptr, ptr, ptr, i32, i32, i32, i32, %struct.AVRational, i32, i32, i32, %struct.AVChannelLayout, %struct.AVRational, ptr, i32, %struct.AVFilterFormatsConfig, %struct.AVFilterFormatsConfig }
%struct.AVChannelLayout = type { i32, i32, %union.anon.1, ptr }
%union.anon.1 = type { i64 }
%struct.AVRational = type { i32, i32 }
%struct.AVFilterFormatsConfig = type { ptr, ptr, ptr, ptr, ptr }
%struct.EqualizatorFilter = type { i32, i32, i32, double, double, double, [2 x %struct.FoSection] }
%struct.FoSection = type { double, double, double, double, double, double, double, double, double, double, [4 x double], [4 x double] }

@.str.29 = private unnamed_addr constant [7 x i8] c"change\00", align 1
@.str.30 = private unnamed_addr constant [21 x i8] c"%d|f=%lf|w=%lf|g=%lf\00", align 1

; Function Attrs: nounwind uwtable
define internal i32 @process_command(ptr noundef %0, ptr noundef %1, ptr noundef %2, ptr noundef %3, i32 noundef %4, i32 noundef %5) #1 {
  %7 = alloca i32, align 4
  %8 = alloca ptr, align 8
  %9 = alloca ptr, align 8
  %10 = alloca ptr, align 8
  %11 = alloca ptr, align 8
  %12 = alloca i32, align 4
  %13 = alloca i32, align 4
  %14 = alloca ptr, align 8
  %15 = alloca ptr, align 8
  %16 = alloca i32, align 4
  %17 = alloca double, align 8
  %18 = alloca double, align 8
  %19 = alloca double, align 8
  %20 = alloca i32, align 4
  %21 = alloca i32, align 4
  store ptr %0, ptr %8, align 8, !tbaa !4
  store ptr %1, ptr %9, align 8, !tbaa !28
  store ptr %2, ptr %10, align 8, !tbaa !28
  store ptr %3, ptr %11, align 8, !tbaa !28
  store i32 %4, ptr %12, align 4, !tbaa !29
  store i32 %5, ptr %13, align 4, !tbaa !29
  call void @llvm.lifetime.start.p0(i64 8, ptr %14) #13
  %22 = load ptr, ptr %8, align 8, !tbaa !4
  %23 = getelementptr inbounds nuw %struct.AVFilterContext, ptr %22, i32 0, i32 9
  %24 = load ptr, ptr %23, align 8, !tbaa !9
  store ptr %24, ptr %14, align 8, !tbaa !22
  call void @llvm.lifetime.start.p0(i64 8, ptr %15) #13
  %25 = load ptr, ptr %8, align 8, !tbaa !4
  %26 = getelementptr inbounds nuw %struct.AVFilterContext, ptr %25, i32 0, i32 4
  %27 = load ptr, ptr %26, align 8, !tbaa !45
  %28 = getelementptr inbounds ptr, ptr %27, i64 0
  %29 = load ptr, ptr %28, align 8, !tbaa !46
  store ptr %29, ptr %15, align 8, !tbaa !46
  call void @llvm.lifetime.start.p0(i64 4, ptr %16) #13
  store i32 -38, ptr %16, align 4, !tbaa !29
  %30 = load ptr, ptr %9, align 8, !tbaa !28
  %31 = call i32 @strcmp(ptr noundef %30, ptr noundef @.str.29) #14
  %32 = icmp ne i32 %31, 0
  br i1 %32, label %109, label %33

33:                                               ; preds = %6
  call void @llvm.lifetime.start.p0(i64 8, ptr %17) #13
  call void @llvm.lifetime.start.p0(i64 8, ptr %18) #13
  call void @llvm.lifetime.start.p0(i64 8, ptr %19) #13
  call void @llvm.lifetime.start.p0(i64 4, ptr %20) #13
  %34 = load ptr, ptr %10, align 8, !tbaa !28
  %35 = call i32 (ptr, ptr, ...) @__isoc99_sscanf(ptr noundef %34, ptr noundef @.str.30, ptr noundef %20, ptr noundef %17, ptr noundef %18, ptr noundef %19) #13
  %36 = icmp ne i32 %35, 4
  br i1 %36, label %37, label %38

37:                                               ; preds = %33
  store i32 -22, ptr %7, align 4
  store i32 1, ptr %21, align 4
  br label %106

38:                                               ; preds = %33
  %39 = load i32, ptr %20, align 4, !tbaa !29
  %40 = icmp slt i32 %39, 0
  br i1 %40, label %47, label %41

41:                                               ; preds = %38
  %42 = load i32, ptr %20, align 4, !tbaa !29
  %43 = load ptr, ptr %14, align 8, !tbaa !22
  %44 = getelementptr inbounds nuw %struct.AudioNEqualizerContext, ptr %43, i32 0, i32 8
  %45 = load i32, ptr %44, align 4, !tbaa !41
  %46 = icmp sge i32 %42, %45
  br i1 %46, label %47, label %48

47:                                               ; preds = %41, %38
  store i32 -22, ptr %7, align 4
  store i32 1, ptr %21, align 4
  br label %106

48:                                               ; preds = %41
  %49 = load double, ptr %17, align 8, !tbaa !48
  %50 = fcmp nsz olt double %49, 0.000000e+00
  br i1 %50, label %59, label %51

51:                                               ; preds = %48
  %52 = load double, ptr %17, align 8, !tbaa !48
  %53 = load ptr, ptr %15, align 8, !tbaa !46
  %54 = getelementptr inbounds nuw %struct.AVFilterLink, ptr %53, i32 0, i32 11
  %55 = load i32, ptr %54, align 8, !tbaa !49
  %56 = sitofp i32 %55 to double
  %57 = fdiv nsz double %56, 2.000000e+00
  %58 = fcmp nsz ogt double %52, %57
  br i1 %58, label %59, label %60

59:                                               ; preds = %51, %48
  store i32 -22, ptr %7, align 4
  store i32 1, ptr %21, align 4
  br label %106

60:                                               ; preds = %51
  %61 = load double, ptr %17, align 8, !tbaa !48
  %62 = load ptr, ptr %14, align 8, !tbaa !22
  %63 = getelementptr inbounds nuw %struct.AudioNEqualizerContext, ptr %62, i32 0, i32 10
  %64 = load ptr, ptr %63, align 8, !tbaa !57
  %65 = load i32, ptr %20, align 4, !tbaa !29
  %66 = sext i32 %65 to i64
  %67 = getelementptr inbounds %struct.EqualizatorFilter, ptr %64, i64 %66
  %68 = getelementptr inbounds nuw %struct.EqualizatorFilter, ptr %67, i32 0, i32 3
  store double %61, ptr %68, align 8, !tbaa !58
  %69 = load double, ptr %18, align 8, !tbaa !48
  %70 = load ptr, ptr %14, align 8, !tbaa !22
  %71 = getelementptr inbounds nuw %struct.AudioNEqualizerContext, ptr %70, i32 0, i32 10
  %72 = load ptr, ptr %71, align 8, !tbaa !57
  %73 = load i32, ptr %20, align 4, !tbaa !29
  %74 = sext i32 %73 to i64
  %75 = getelementptr inbounds %struct.EqualizatorFilter, ptr %72, i64 %74
  %76 = getelementptr inbounds nuw %struct.EqualizatorFilter, ptr %75, i32 0, i32 5
  store double %69, ptr %76, align 8, !tbaa !60
  %77 = load double, ptr %19, align 8, !tbaa !48
  %78 = load ptr, ptr %14, align 8, !tbaa !22
  %79 = getelementptr inbounds nuw %struct.AudioNEqualizerContext, ptr %78, i32 0, i32 10
  %80 = load ptr, ptr %79, align 8, !tbaa !57
  %81 = load i32, ptr %20, align 4, !tbaa !29
  %82 = sext i32 %81 to i64
  %83 = getelementptr inbounds %struct.EqualizatorFilter, ptr %80, i64 %82
  %84 = getelementptr inbounds nuw %struct.EqualizatorFilter, ptr %83, i32 0, i32 4
  store double %77, ptr %84, align 8, !tbaa !61
  %85 = load ptr, ptr %14, align 8, !tbaa !22
  %86 = getelementptr inbounds nuw %struct.AudioNEqualizerContext, ptr %85, i32 0, i32 10
  %87 = load ptr, ptr %86, align 8, !tbaa !57
  %88 = load i32, ptr %20, align 4, !tbaa !29
  %89 = sext i32 %88 to i64
  %90 = getelementptr inbounds %struct.EqualizatorFilter, ptr %87, i64 %89
  %91 = load ptr, ptr %15, align 8, !tbaa !46
  %92 = getelementptr inbounds nuw %struct.AVFilterLink, ptr %91, i32 0, i32 11
  %93 = load i32, ptr %92, align 8, !tbaa !49
  %94 = sitofp i32 %93 to double
  call void @equalizer(ptr noundef %90, double noundef %94)
  %95 = load ptr, ptr %14, align 8, !tbaa !22
  %96 = getelementptr inbounds nuw %struct.AudioNEqualizerContext, ptr %95, i32 0, i32 3
  %97 = load i32, ptr %96, align 8, !tbaa !32
  %98 = icmp ne i32 %97, 0
  br i1 %98, label %99, label %105

99:                                               ; preds = %60
  %100 = load ptr, ptr %8, align 8, !tbaa !4
  %101 = load ptr, ptr %15, align 8, !tbaa !46
  %102 = load ptr, ptr %14, align 8, !tbaa !22
  %103 = getelementptr inbounds nuw %struct.AudioNEqualizerContext, ptr %102, i32 0, i32 11
  %104 = load ptr, ptr %103, align 8, !tbaa !62
  call void @draw_curves(ptr noundef %100, ptr noundef %101, ptr noundef %104)
  br label %105

105:                                              ; preds = %99, %60
  store i32 0, ptr %16, align 4, !tbaa !29
  store i32 0, ptr %21, align 4
  br label %106

106:                                              ; preds = %105, %59, %47, %37
  call void @llvm.lifetime.end.p0(i64 4, ptr %20) #13
  call void @llvm.lifetime.end.p0(i64 8, ptr %19) #13
  call void @llvm.lifetime.end.p0(i64 8, ptr %18) #13
  call void @llvm.lifetime.end.p0(i64 8, ptr %17) #13
  %107 = load i32, ptr %21, align 4
  switch i32 %107, label %111 [
    i32 0, label %108
  ]

108:                                              ; preds = %106
  br label %109

109:                                              ; preds = %108, %6
  %110 = load i32, ptr %16, align 4, !tbaa !29
  store i32 %110, ptr %7, align 4
  store i32 1, ptr %21, align 4
  br label %111

111:                                              ; preds = %109, %106
  call void @llvm.lifetime.end.p0(i64 4, ptr %16) #13
  call void @llvm.lifetime.end.p0(i64 8, ptr %15) #13
  call void @llvm.lifetime.end.p0(i64 8, ptr %14) #13
  %112 = load i32, ptr %7, align 4
  ret i32 %112
}