; Function Attrs: nounwind uwtable
define internal range(i32 -38, 1) i32 @process_command(ptr noundef %0, ptr noundef readonly captures(none) %1, ptr noundef readonly captures(none) %2, ptr readnone captures(none) %3, i32 %4, i32 %5) #1 {
  %7 = alloca double, align 8
  %8 = alloca double, align 8
  %9 = alloca double, align 8
  %10 = alloca i32, align 4
  %11 = getelementptr inbounds nuw i8, ptr %0, i64 72
  %12 = load ptr, ptr %11, align 8, !tbaa !4
  %13 = getelementptr inbounds nuw i8, ptr %0, i64 32
  %14 = load ptr, ptr %13, align 8, !tbaa !30
  %15 = load ptr, ptr %14, align 8, !tbaa !31
  %16 = tail call i32 @strcmp(ptr noundef nonnull dereferenceable(1) %1, ptr noundef nonnull dereferenceable(7) @.str.29) #16
  %.not = icmp eq i32 %16, 0
  br i1 %.not, label %17, label %49

17:                                               ; preds = %6
  call void @llvm.lifetime.start.p0(i64 8, ptr nonnull %7) #15
  call void @llvm.lifetime.start.p0(i64 8, ptr nonnull %8) #15
  call void @llvm.lifetime.start.p0(i64 8, ptr nonnull %9) #15
  call void @llvm.lifetime.start.p0(i64 4, ptr nonnull %10) #15
  %18 = call i32 (ptr, ptr, ...) @__isoc99_sscanf(ptr noundef %2, ptr noundef nonnull @.str.30, ptr noundef nonnull %10, ptr noundef nonnull %7, ptr noundef nonnull %8, ptr noundef nonnull %9) #15
  %.not22 = icmp eq i32 %18, 4
  br i1 %.not22, label %19, label %.sink.split

19:                                               ; preds = %17
  %20 = load i32, ptr %10, align 4, !tbaa !21
  %21 = icmp slt i32 %20, 0
  br i1 %21, label %.sink.split, label %22

22:                                               ; preds = %19
  %23 = getelementptr inbounds nuw i8, ptr %12, i64 52
  %24 = load i32, ptr %23, align 4, !tbaa !28
  %.not23 = icmp slt i32 %20, %24
  br i1 %.not23, label %25, label %.sink.split

25:                                               ; preds = %22
  %26 = load double, ptr %7, align 8, !tbaa !33
  %27 = fcmp nsz olt double %26, 0.000000e+00
  br i1 %27, label %.sink.split, label %28

28:                                               ; preds = %25
  %29 = getelementptr inbounds nuw i8, ptr %15, i64 64
  %30 = load i32, ptr %29, align 8, !tbaa !34
  %31 = sitofp i32 %30 to double
  %32 = fmul nsz double %31, 5.000000e-01
  %33 = fcmp nsz ogt double %26, %32
  br i1 %33, label %.sink.split, label %34

34:                                               ; preds = %28
  %35 = getelementptr inbounds nuw i8, ptr %12, i64 64
  %36 = load ptr, ptr %35, align 8, !tbaa !43
  %37 = zext nneg i32 %20 to i64
  %38 = getelementptr inbounds nuw %struct.EqualizatorFilter, ptr %36, i64 %37, i32 3
  store double %26, ptr %38, align 8, !tbaa !44
  %39 = load double, ptr %8, align 8, !tbaa !33
  %40 = getelementptr inbounds nuw %struct.EqualizatorFilter, ptr %36, i64 %37, i32 5
  store double %39, ptr %40, align 8, !tbaa !46
  %41 = load double, ptr %9, align 8, !tbaa !33
  %42 = getelementptr inbounds nuw %struct.EqualizatorFilter, ptr %36, i64 %37, i32 4
  store double %41, ptr %42, align 8, !tbaa !47
  %43 = getelementptr inbounds nuw %struct.EqualizatorFilter, ptr %36, i64 %37
  call fastcc void @equalizer(ptr noundef %43, double noundef %31)
  %44 = getelementptr inbounds nuw i8, ptr %12, i64 24
  %45 = load i32, ptr %44, align 8, !tbaa !22
  %.not24 = icmp eq i32 %45, 0
  br i1 %.not24, label %.sink.split, label %46

46:                                               ; preds = %34
  %47 = getelementptr inbounds nuw i8, ptr %12, i64 72
  %48 = load ptr, ptr %47, align 8, !tbaa !48
  call fastcc void @draw_curves(ptr noundef nonnull %0, ptr noundef nonnull %15, ptr noundef %48)
  br label %.sink.split

.sink.split:                                      ; preds = %34, %46, %25, %28, %19, %22, %17
  %.119.ph = phi i32 [ -22, %17 ], [ -22, %22 ], [ -22, %19 ], [ -22, %28 ], [ -22, %25 ], [ 0, %46 ], [ 0, %34 ]
  call void @llvm.lifetime.end.p0(i64 4, ptr nonnull %10) #15
  call void @llvm.lifetime.end.p0(i64 8, ptr nonnull %9) #15
  call void @llvm.lifetime.end.p0(i64 8, ptr nonnull %8) #15
  call void @llvm.lifetime.end.p0(i64 8, ptr nonnull %7) #15
  br label %49

49:                                               ; preds = %.sink.split, %6
  %.119 = phi i32 [ -38, %6 ], [ %.119.ph, %.sink.split ]
  ret i32 %.119
}